target datalayout = "e-m:e-p270:32:32-p271:32:32-p272:64:64-i64:64-i128:128-f80:128-n8:16:32:64-S128"
target triple = "x86_64-pc-linux-gnu"

; Function Attrs: nounwind uwtable
define internal i32 @little2_predefinedEntityName(ptr noundef %0, ptr noundef %1, ptr noundef %2) #0 {
  %4 = alloca i32, align 4
  %5 = alloca ptr, align 8
  %6 = alloca ptr, align 8
  %7 = alloca ptr, align 8
  store ptr %0, ptr %5, align 8, !tbaa !45
  store ptr %1, ptr %6, align 8, !tbaa !4
  store ptr %2, ptr %7, align 8, !tbaa !4
  %8 = load ptr, ptr %7, align 8, !tbaa !4
  %9 = load ptr, ptr %6, align 8, !tbaa !4
  %10 = ptrtoint ptr %8 to i64
  %11 = ptrtoint ptr %9 to i64
  %12 = sub i64 %10, %11
  %13 = sdiv i64 %12, 2
  switch i64 %13, label %197 [
    i64 2, label %14
    i64 3, label %46
    i64 4, label %90
  ]

14:                                               ; preds = %3
  %15 = load ptr, ptr %6, align 8, !tbaa !4
  %16 = getelementptr inbounds i8, ptr %15, i64 2
  %17 = getelementptr inbounds i8, ptr %16, i64 1
  %18 = load i8, ptr %17, align 1, !tbaa !13
  %19 = sext i8 %18 to i32
  %20 = icmp eq i32 %19, 0
  br i1 %20, label %21, label %45

21:                                               ; preds = %14
  %22 = load ptr, ptr %6, align 8, !tbaa !4
  %23 = getelementptr inbounds i8, ptr %22, i64 2
  %24 = getelementptr inbounds i8, ptr %23, i64 0
  %25 = load i8, ptr %24, align 1, !tbaa !13
  %26 = sext i8 %25 to i32
  %27 = icmp eq i32 %26, 116
  br i1 %27, label %28, label %45

28:                                               ; preds = %21
  %29 = load ptr, ptr %6, align 8, !tbaa !4
  %30 = getelementptr inbounds i8, ptr %29, i64 1
  %31 = load i8, ptr %30, align 1, !tbaa !13
  %32 = sext i8 %31 to i32
  %33 = icmp eq i32 %32, 0
  br i1 %33, label %34, label %39

34:                                               ; preds = %28
  %35 = load ptr, ptr %6, align 8, !tbaa !4
  %36 = getelementptr inbounds i8, ptr %35, i64 0
  %37 = load i8, ptr %36, align 1, !tbaa !13
  %38 = sext i8 %37 to i32
  br label %40

39:                                               ; preds = %28
  br label %40

40:                                               ; preds = %39, %34
  %41 = phi i32 [ %38, %34 ], [ -1, %39 ]
  switch i32 %41, label %44 [
    i32 108, label %42
    i32 103, label %43
  ]

42:                                               ; preds = %40
  store i32 60, ptr %4, align 4
  br label %198

43:                                               ; preds = %40
  store i32 62, ptr %4, align 4
  br label %198

44:                                               ; preds = %40
  br label %45

45:                                               ; preds = %44, %21, %14
  br label %197

46:                                               ; preds = %3
  %47 = load ptr, ptr %6, align 8, !tbaa !4
  %48 = getelementptr inbounds i8, ptr %47, i64 1
  %49 = load i8, ptr %48, align 1, !tbaa !13
  %50 = sext i8 %49 to i32
  %51 = icmp eq i32 %50, 0
  br i1 %51, label %52, label %89

52:                                               ; preds = %46
  %53 = load ptr, ptr %6, align 8, !tbaa !4
  %54 = getelementptr inbounds i8, ptr %53, i64 0
  %55 = load i8, ptr %54, align 1, !tbaa !13
  %56 = sext i8 %55 to i32
  %57 = icmp eq i32 %56, 97
  br i1 %57, label %58, label %89

58:                                               ; preds = %52
  %59 = load ptr, ptr %6, align 8, !tbaa !4
  %60 = getelementptr inbounds i8, ptr %59, i64 2
  store ptr %60, ptr %6, align 8, !tbaa !4
  %61 = load ptr, ptr %6, align 8, !tbaa !4
  %62 = getelementptr inbounds i8, ptr %61, i64 1
  %63 = load i8, ptr %62, align 1, !tbaa !13
  %64 = sext i8 %63 to i32
  %65 = icmp eq i32 %64, 0
  br i1 %65, label %66, label %88

66:                                               ; preds = %58
  %67 = load ptr, ptr %6, align 8, !tbaa !4
  %68 = getelementptr inbounds i8, ptr %67, i64 0
  %69 = load i8, ptr %68, align 1, !tbaa !13
  %70 = sext i8 %69 to i32
  %71 = icmp eq i32 %70, 109
  br i1 %71, label %72, label %88

72:                                               ; preds = %66
  %73 = load ptr, ptr %6, align 8, !tbaa !4
  %74 = getelementptr inbounds i8, ptr %73, i64 2
  store ptr %74, ptr %6, align 8, !tbaa !4
  %75 = load ptr, ptr %6, align 8, !tbaa !4
  %76 = getelementptr inbounds i8, ptr %75, i64 1
  %77 = load i8, ptr %76, align 1, !tbaa !13
  %78 = sext i8 %77 to i32
  %79 = icmp eq i32 %78, 0
  br i1 %79, label %80, label %87

80:                                               ; preds = %72
  %81 = load ptr, ptr %6, align 8, !tbaa !4
  %82 = getelementptr inbounds i8, ptr %81, i64 0
  %83 = load i8, ptr %82, align 1, !tbaa !13
  %84 = sext i8 %83 to i32
  %85 = icmp eq i32 %84, 112
  br i1 %85, label %86, label %87

86:                                               ; preds = %80
  store i32 38, ptr %4, align 4
  br label %198

87:                                               ; preds = %80, %72
  br label %88

88:                                               ; preds = %87, %66, %58
  br label %89

89:                                               ; preds = %88, %52, %46
  br label %197

90:                                               ; preds = %3
  %91 = load ptr, ptr %6, align 8, !tbaa !4
  %92 = getelementptr inbounds i8, ptr %91, i64 1
  %93 = load i8, ptr %92, align 1, !tbaa !13
  %94 = sext i8 %93 to i32
  %95 = icmp eq i32 %94, 0
  br i1 %95, label %96, label %101

96:                                               ; preds = %90
  %97 = load ptr, ptr %6, align 8, !tbaa !4
  %98 = getelementptr inbounds i8, ptr %97, i64 0
  %99 = load i8, ptr %98, align 1, !tbaa !13
  %100 = sext i8 %99 to i32
  br label %102

101:                                              ; preds = %90
  br label %102

102:                                              ; preds = %101, %96
  %103 = phi i32 [ %100, %96 ], [ -1, %101 ]
  switch i32 %103, label %196 [
    i32 113, label %104
    i32 97, label %150
  ]

104:                                              ; preds = %102
  %105 = load ptr, ptr %6, align 8, !tbaa !4
  %106 = getelementptr inbounds i8, ptr %105, i64 2
  store ptr %106, ptr %6, align 8, !tbaa !4
  %107 = load ptr, ptr %6, align 8, !tbaa !4
  %108 = getelementptr inbounds i8, ptr %107, i64 1
  %109 = load i8, ptr %108, align 1, !tbaa !13
  %110 = sext i8 %109 to i32
  %111 = icmp eq i32 %110, 0
  br i1 %111, label %112, label %149

112:                                              ; preds = %104
  %113 = load ptr, ptr %6, align 8, !tbaa !4
  %114 = getelementptr inbounds i8, ptr %113, i64 0
  %115 = load i8, ptr %114, align 1, !tbaa !13
  %116 = sext i8 %115 to i32
  %117 = icmp eq i32 %116, 117
  br i1 %117, label %118, label %149

118:                                              ; preds = %112
  %119 = load ptr, ptr %6, align 8, !tbaa !4
  %120 = getelementptr inbounds i8, ptr %119, i64 2
  store ptr %120, ptr %6, align 8, !tbaa !4
  %121 = load ptr, ptr %6, align 8, !tbaa !4
  %122 = getelementptr inbounds i8, ptr %121, i64 1
  %123 = load i8, ptr %122, align 1, !tbaa !13
  %124 = sext i8 %123 to i32
  %125 = icmp eq i32 %124, 0
  br i1 %125, label %126, label %148

126:                                              ; preds = %118
  %127 = load ptr, ptr %6, align 8, !tbaa !4
  %128 = getelementptr inbounds i8, ptr %127, i64 0
  %129 = load i8, ptr %128, align 1, !tbaa !13
  %130 = sext i8 %129 to i32
  %131 = icmp eq i32 %130, 111
  br i1 %131, label %132, label %148

132:                                              ; preds = %126
  %133 = load ptr, ptr %6, align 8, !tbaa !4
  %134 = getelementptr inbounds i8, ptr %133, i64 2
  store ptr %134, ptr %6, align 8, !tbaa !4
  %135 = load ptr, ptr %6, align 8, !tbaa !4
  %136 = getelementptr inbounds i8, ptr %135, i64 1
  %137 = load i8, ptr %136, align 1, !tbaa !13
  %138 = sext i8 %137 to i32
  %139 = icmp eq i32 %138, 0
  br i1 %139, label %140, label %147

140:                                              ; preds = %132
  %141 = load ptr, ptr %6, align 8, !tbaa !4
  %142 = getelementptr inbounds i8, ptr %141, i64 0
  %143 = load i8, ptr %142, align 1, !tbaa !13
  %144 = sext i8 %143 to i32
  %145 = icmp eq i32 %144, 116
  br i1 %145, label %146, label %147

146:                                              ; preds = %140
  store i32 34, ptr %4, align 4
  br label %198

147:                                              ; preds = %140, %132
  br label %148

148:                                              ; preds = %147, %126, %118
  br label %149

149:                                              ; preds = %148, %112, %104
  br label %196

150:                                              ; preds = %102
  %151 = load ptr, ptr %6, align 8, !tbaa !4
  %152 = getelementptr inbounds i8, ptr %151, i64 2
  store ptr %152, ptr %6, align 8, !tbaa !4
  %153 = load ptr, ptr %6, align 8, !tbaa !4
  %154 = getelementptr inbounds i8, ptr %153, i64 1
  %155 = load i8, ptr %154, align 1, !tbaa !13
  %156 = sext i8 %155 to i32
  %157 = icmp eq i32 %156, 0
  br i1 %157, label %158, label %195

158:                                              ; preds = %150
  %159 = load ptr, ptr %6, align 8, !tbaa !4
  %160 = getelementptr inbounds i8, ptr %159, i64 0
  %161 = load i8, ptr %160, align 1, !tbaa !13
  %162 = sext i8 %161 to i32
  %163 = icmp eq i32 %162, 112
  br i1 %163, label %164, label %195

164:                                              ; preds = %158
  %165 = load ptr, ptr %6, align 8, !tbaa !4
  %166 = getelementptr inbounds i8, ptr %165, i64 2
  store ptr %166, ptr %6, align 8, !tbaa !4
  %167 = load ptr, ptr %6, align 8, !tbaa !4
  %168 = getelementptr inbounds i8, ptr %167, i64 1
  %169 = load i8, ptr %168, align 1, !tbaa !13
  %170 = sext i8 %169 to i32
  %171 = icmp eq i32 %170, 0
  br i1 %171, label %172, label %194

172:                                              ; preds = %164
  %173 = load ptr, ptr %6, align 8, !tbaa !4
  %174 = getelementptr inbounds i8, ptr %173, i64 0
  %175 = load i8, ptr %174, align 1, !tbaa !13
  %176 = sext i8 %175 to i32
  %177 = icmp eq i32 %176, 111
  br i1 %177, label %178, label %194

178:                                              ; preds = %172
  %179 = load ptr, ptr %6, align 8, !tbaa !4
  %180 = getelementptr inbounds i8, ptr %179, i64 2
  store ptr %180, ptr %6, align 8, !tbaa !4
  %181 = load ptr, ptr %6, align 8, !tbaa !4
  %182 = getelementptr inbounds i8, ptr %181, i64 1
  %183 = load i8, ptr %182, align 1, !tbaa !13
  %184 = sext i8 %183 to i32
  %185 = icmp eq i32 %184, 0
  br i1 %185, label %186, label %193

186:                                              ; preds = %178
  %187 = load ptr, ptr %6, align 8, !tbaa !4
  %188 = getelementptr inbounds i8, ptr %187, i64 0
  %189 = load i8, ptr %188, align 1, !tbaa !13
  %190 = sext i8 %189 to i32
  %191 = icmp eq i32 %190, 115
  br i1 %191, label %192, label %193

192:                                              ; preds = %186
  store i32 39, ptr %4, align 4
  br label %198

193:                                              ; preds = %186, %178
  br label %194

194:                                              ; preds = %193, %172, %164
  br label %195

195:                                              ; preds = %194, %158, %150
  br label %196

196:                                              ; preds = %102, %195, %149
  br label %197

197:                                              ; preds = %196, %3, %89, %45
  store i32 0, ptr %4, align 4
  br label %198

198:                                              ; preds = %197, %192, %146, %86, %43, %42
  %199 = load i32, ptr %4, align 4
  ret i32 %199
}